; Function Attrs: mustprogress uwtable
define dso_local { i64, i64 } @_ZNK4absl24synchronization_internal13KernelTimeout15MakeAbsTimespecEv(ptr noundef nonnull readonly align 8 captures(none) dereferenceable(8) %0) local_unnamed_addr #5 align 2 {
  %2 = load i64, ptr %0, align 8, !tbaa !4
  %.not.i = icmp eq i64 %2, -1
  br i1 %.not.i, label %_ZNK4absl24synchronization_internal13KernelTimeout12MakeAbsNanosEv.exit, label %3

3:                                                ; preds = %1
  %4 = lshr i64 %2, 1
  %5 = and i64 %2, 1
  %.not13.i = icmp eq i64 %5, 0
  br i1 %.not13.i, label %13, label %6

6:                                                ; preds = %3
  %7 = tail call noundef i64 @_ZNSt6chrono3_V212steady_clock3nowEv() #8
  %8 = sub nsw i64 %4, %7
  %.sroa.speculated.i = tail call i64 @llvm.smax.i64(i64 %8, i64 0)
  %9 = tail call noundef i64 @_ZN4absl19GetCurrentTimeNanosEv()
  %10 = sub nsw i64 9223372036854775807, %9
  %11 = icmp sgt i64 %8, %10
  %12 = add nsw i64 %.sroa.speculated.i, %9
  %.08.i = select i1 %11, i64 9223372036854775807, i64 %12
  br label %_ZNK4absl24synchronization_internal13KernelTimeout12MakeAbsNanosEv.exit

13:                                               ; preds = %3
  %spec.store.select.i = tail call i64 @llvm.umax.i64(i64 %4, i64 1)
  br label %_ZNK4absl24synchronization_internal13KernelTimeout12MakeAbsNanosEv.exit

_ZNK4absl24synchronization_internal13KernelTimeout12MakeAbsNanosEv.exit: ; preds = %1, %6, %13
  %.0.i = phi i64 [ 9223372036854775807, %1 ], [ %.08.i, %6 ], [ %spec.store.select.i, %13 ]
  %14 = sdiv i64 %.0.i, 1000000000
  %15 = srem i64 %.0.i, 1000000000
  %16 = icmp slt i64 %15, 0
  %.tr.i.i = trunc nsw i64 %15 to i32
  %17 = shl i32 %.tr.i.i, 2
  %18 = add i32 %17, -294967296
  %.lobit.i.i.i = ashr i64 %15, 61
  %.pn17.i.i.i = add nsw i64 %.lobit.i.i.i, %14
  %.pn15.i.i.i = select i1 %16, i32 %18, i32 %17
  %19 = tail call { i64, i64 } @_ZN4absl10ToTimespecENS_8DurationE(i64 %.pn17.i.i.i, i32 %.pn15.i.i.i) #9
  ret { i64, i64 } %19
}